Certificate:
    Data:
        Version: 3 (0x2)
        Serial Number:
            d7:51:d3:67:dd:88:55:a5
        Signature Algorithm: sha1WithRSAEncryption
        Issuer: C=US, ST=Alaska, O=Widgets, CN=plugui
        Validity
            Not Before: Apr  9 19:22:17 2011 GMT
            Not After : Apr  7 19:22:17 2016 GMT
        Subject: C=US, ST=Alaska, O=Widgets, CN=plug
        Subject Public Key Info:
            Public Key Algorithm: rsaEncryption
                Public-Key: (2048 bit)
                Modulus:
                    00:d8:f1:1c:7a:7a:20:72:d1:ea:19:07:28:d8:69:
                    62:f8:f5:35:ce:f5:03:bc:89:df:82:a4:3e:47:6b:
                    9d:30:2e:36:49:ba:3a:07:1d:65:21:6d:7d:6f:a9:
                    56:3d:61:9d:c3:fe:35:32:2f:08:1e:4b:49:c0:d4:
                    46:55:89:2a:31:74:87:1e:bc:bd:bd:28:6e:76:bc:
                    bd:d0:54:aa:26:07:c7:d5:bc:e3:08:69:07:87:69:
                    ea:4a:3e:d4:fc:0b:1c:5c:91:85:76:55:54:da:5c:
                    95:14:06:c7:46:bc:70:b0:f5:ff:2b:4c:18:ad:e3:
                    8c:13:57:3f:61:ec:03:f1:8b:fd:36:0c:c5:9d:73:
                    be:09:a9:04:de:f9:77:43:1d:63:1e:8c:01:dc:95:
                    ba:6c:20:3a:5e:11:d6:49:7d:08:93:c1:07:1b:77:
                    74:7b:c0:26:21:34:8e:44:cf:2e:0e:be:1d:2c:0b:
                    2c:ae:3d:4e:10:fe:d2:a1:2c:66:3c:e2:1d:9c:f2:
                    c0:bb:38:14:ce:10:39:d3:95:5c:6b:cc:d9:44:ee:
                    b8:bc:41:ef:80:a4:51:52:1f:b6:ea:b4:98:3e:90:
                    b1:19:0b:cf:d1:79:ec:be:88:0e:7b:1e:84:5d:6d:
                    ff:f4:d4:5a:c8:31:cf:c0:68:aa:70:12:87:43:e8:
                    8f:19
                Exponent: 65537 (0x10001)
        X509v3 extensions:
            X509v3 Basic Constraints: 
                CA:FALSE
            Netscape Comment: 
                OpenSSL Generated Certificate
            X509v3 Subject Key Identifier: 
                5A:0B:5B:75:DC:6B:AB:AF:D0:A7:57:F4:9C:9C:A7:D0:FC:63:C5:DD
            X509v3 Authority Key Identifier: 
                keyid:5D:9D:69:55:F2:2E:89:0C:94:F0:81:2D:E7:2F:0D:3F:EC:C0:D5:6B

    Signature Algorithm: sha1WithRSAEncryption
        9a:af:ca:c6:04:f1:34:27:3b:96:19:e8:b5:ed:38:a5:7d:03:
        26:cc:55:41:ca:e1:f7:41:1b:fd:99:9b:fb:94:5b:a0:2f:bf:
        ac:65:3e:db:c8:26:c4:bb:6d:70:6e:58:c6:1a:56:2e:94:46:
        2a:49:fa:b9:5b:5f:79:be:24:8f:51:2e:a8:18:40:07:6e:06:
        0e:3d:06:bd:f1:67:2d:33:95:0a:01:4b:73:78:2b:a6:05:10:
        11:12:88:42:4e:ad:cb:c6:96:42:2c:b5:6e:f6:44:a4:c3:20:
        f7:3e:14:cc:62:b9:21:42:3a:4b:16:89:a9:5c:51:a4:f4:ed:
        cf:e2:eb:74:e8:10:6a:33:92:92:f6:4c:07:bf:80:b3:5b:46:
        fe:89:76:22:ee:5e:19:b2:fa:12:a5:3c:5c:af:3f:c6:62:6e:
        48:60:fb:9e:dd:bc:68:a0:74:38:94:33:bf:e6:44:1d:7f:49:
        c5:af:8c:42:d4:e0:a7:a4:2f:1f:26:92:9d:12:ea:30:89:cf:
        71:53:da:03:a0:a4:ad:cd:50:5d:7e:d3:32:8c:7b:d9:dd:34:
        91:4b:78:4e:ad:58:b9:08:a8:d4:3e:ac:00:4f:a6:f0:22:7f:
        a0:04:30:f1:3f:ee:b0:32:76:8f:37:01:12:a8:5e:ad:a9:c4:
        13:a8:6a:09
-----BEGIN CERTIFICATE-----
MIIDfjCCAmagAwIBAgIJANdR02fdiFWlMA0GCSqGSIb3DQEBBQUAMEExCzAJBgNV
BAYTAlVTMQ8wDQYDVQQIDAZBbGFza2ExEDAOBgNVBAoMB1dpZGdldHMxDzANBgNV
BAMMBnBsdWd1aTAeFw0xMTA0MDkxOTIyMTdaFw0xNjA0MDcxOTIyMTdaMD8xCzAJ
BgNVBAYTAlVTMQ8wDQYDVQQIDAZBbGFza2ExEDAOBgNVBAoMB1dpZGdldHMxDTAL
BgNVBAMMBHBsdWcwggEiMA0GCSqGSIb3DQEBAQUAA4IBDwAwggEKAoIBAQDY8Rx6
eiBy0eoZByjYaWL49TXO9QO8id+CpD5Ha50wLjZJujoHHWUhbX1vqVY9YZ3D/jUy
LwgeS0nA1EZViSoxdIcevL29KG52vL3QVKomB8fVvOMIaQeHaepKPtT8CxxckYV2
VVTaXJUUBsdGvHCw9f8rTBit44wTVz9h7APxi/02DMWdc74JqQTe+XdDHWMejAHc
lbpsIDpeEdZJfQiTwQcbd3R7wCYhNI5Ezy4Ovh0sCyyuPU4Q/tKhLGY84h2c8sC7
OBTOEDnTlVxrzNlE7ri8Qe+ApFFSH7bqtJg+kLEZC8/Reey+iA57HoRdbf/01FrI
Mc/AaKpwEodD6I8ZAgMBAAGjezB5MAkGA1UdEwQCMAAwLAYJYIZIAYb4QgENBB8W
HU9wZW5TU0wgR2VuZXJhdGVkIENlcnRpZmljYXRlMB0GA1UdDgQWBBRaC1t13Gur
r9CnV/ScnKfQ/GPF3TAfBgNVHSMEGDAWgBRdnWlV8i6JDJTwgS3nLw0/7MDVazAN
BgkqhkiG9w0BAQUFAAOCAQEAmq/KxgTxNCc7lhnote04pX0DJsxVQcrh90Eb/Zmb
+5RboC+/rGU+28gmxLttcG5YxhpWLpRGKkn6uVtfeb4kj1EuqBhAB24GDj0GvfFn
LTOVCgFLc3grpgUQERKIQk6ty8aWQiy1bvZEpMMg9z4UzGK5IUI6SxaJqVxRpPTt
z+LrdOgQajOSkvZMB7+As1tG/ol2Iu5eGbL6EqU8XK8/xmJuSGD7nt28aKB0OJQz
v+ZEHX9Jxa+MQtTgp6QvHyaSnRLqMInPcVPaA6Ckrc1QXX7TMox72d00kUt4Tq1Y
uQio1D6sAE+m8CJ/oAQw8T/usDJ2jzcBEqheranEE6hqCQ==
-----END CERTIFICATE-----
